(dp1
S'ofc'
p2
(lp3
S'C:\\bharat\\Work\\OneDrive - NCSU\\github\\tag_based_file_manager\\sample\\dir1\\hello.ofc'
p4
asS'c'
(lp5
S'C:\\bharat\\Work\\OneDrive - NCSU\\github\\tag_based_file_manager\\sample\\example.c'
p6
asS'doc'
p7
(lp8
S'C:\\bharat\\Work\\OneDrive - NCSU\\github\\tag_based_file_manager\\sample\\dir2\\asr.doc'
p9
asS'jpg'
p10
(lp11
S'C:\\bharat\\Work\\OneDrive - NCSU\\github\\tag_based_file_manager\\sample\\people.jpg'
p12
asS'avi'
p13
(lp14
S'C:\\bharat\\Work\\OneDrive - NCSU\\github\\tag_based_file_manager\\sample\\test.avi'
p15
asS'ppt'
p16
(lp17
S'C:\\bharat\\Work\\OneDrive - NCSU\\github\\tag_based_file_manager\\sample\\presentation2.ppt'
p18
aS'C:\\bharat\\Work\\OneDrive - NCSU\\github\\tag_based_file_manager\\sample\\dir1\\mtech.ppt'
p19
aS'C:\\bharat\\Work\\OneDrive - NCSU\\github\\tag_based_file_manager\\sample\\dir2\\prism.ppt'
p20
as.